; Function Attrs: mustprogress uwtable
define void @_ZN4YAML15SingleDocParser11ParseAnchorERmRNSt7__cxx1112basic_stringIcSt11char_traitsIcESaIcEEE(ptr noundef nonnull align 8 dereferenceable(88) %this, ptr nocapture noundef nonnull align 8 dereferenceable(8) %anchor, ptr noundef nonnull align 8 dereferenceable(32) %anchor_name) local_unnamed_addr #4 align 2 personality ptr @__gxx_personality_v0 {
entry:
  %ref.tmp = alloca %"class.std::__cxx11::basic_string", align 8
  %ref.tmp2 = alloca %"class.std::allocator", align 1
  %m_scanner = getelementptr inbounds i8, ptr %this, i64 8
  %0 = load ptr, ptr %m_scanner, align 8
  %call = tail call noundef nonnull align 8 dereferenceable(84) ptr @_ZN4YAML7Scanner4peekEv(ptr noundef nonnull align 8 dereferenceable(480) %0)
  %1 = load i64, ptr %anchor, align 8
  %tobool.not = icmp eq i64 %1, 0
  br i1 %tobool.not, label %if.end, label %if.then

if.then:                                          ; preds = %entry
  %exception = tail call ptr @__cxa_allocate_exception(i64 64) #16
  call void @_ZNSaIcEC1Ev(ptr noundef nonnull align 1 dereferenceable(1) %ref.tmp2) #16
  invoke void @_ZNSt7__cxx1112basic_stringIcSt11char_traitsIcESaIcEEC1EPKcRKS3_(ptr noundef nonnull align 8 dereferenceable(32) %ref.tmp, ptr noundef nonnull @.str.30, ptr noundef nonnull align 1 dereferenceable(1) %ref.tmp2)
          to label %invoke.cont unwind label %ehcleanup.thread

invoke.cont:                                      ; preds = %if.then
  %mark = getelementptr inbounds i8, ptr %call, i64 8
  invoke void @_ZN4YAML15ParserExceptionC2ERKNS_4MarkERKNSt7__cxx1112basic_stringIcSt11char_traitsIcESaIcEEE(ptr noundef nonnull align 8 dereferenceable(64) %exception, ptr noundef nonnull align 4 dereferenceable(12) %mark, ptr noundef nonnull align 8 dereferenceable(32) %ref.tmp)
          to label %invoke.cont4 unwind label %ehcleanup

invoke.cont4:                                     ; preds = %invoke.cont
  invoke void @__cxa_throw(ptr nonnull %exception, ptr nonnull @_ZTIN4YAML15ParserExceptionE, ptr nonnull @_ZN4YAML15ParserExceptionD1Ev) #20
          to label %unreachable unwind label %ehcleanup

ehcleanup.thread:                                 ; preds = %if.then
  %2 = landingpad { ptr, i32 }
          cleanup
  call void @_ZNSaIcED1Ev(ptr noundef nonnull align 1 dereferenceable(1) %ref.tmp2) #16
  br label %cleanup.action

ehcleanup:                                        ; preds = %invoke.cont, %invoke.cont4
  %cleanup.isactive.0 = phi i1 [ false, %invoke.cont4 ], [ true, %invoke.cont ]
  %3 = landingpad { ptr, i32 }
          cleanup
  call void @_ZNSt7__cxx1112basic_stringIcSt11char_traitsIcESaIcEED1Ev(ptr noundef nonnull align 8 dereferenceable(32) %ref.tmp) #16
  call void @_ZNSaIcED1Ev(ptr noundef nonnull align 1 dereferenceable(1) %ref.tmp2) #16
  br i1 %cleanup.isactive.0, label %cleanup.action, label %eh.resume

cleanup.action:                                   ; preds = %ehcleanup.thread, %ehcleanup
  %.pn8 = phi { ptr, i32 } [ %2, %ehcleanup.thread ], [ %3, %ehcleanup ]
  call void @__cxa_free_exception(ptr %exception) #16
  br label %eh.resume

if.end:                                           ; preds = %entry
  %value = getelementptr inbounds i8, ptr %call, i64 24
  %call6 = tail call noundef nonnull align 8 dereferenceable(32) ptr @_ZNSt7__cxx1112basic_stringIcSt11char_traitsIcESaIcEEaSERKS4_(ptr noundef nonnull align 8 dereferenceable(32) %anchor_name, ptr noundef nonnull align 8 dereferenceable(32) %value)
  %call.i = tail call noundef zeroext i1 @_ZNKSt7__cxx1112basic_stringIcSt11char_traitsIcESaIcEE5emptyEv(ptr noundef nonnull align 8 dereferenceable(32) %value) #16
  br i1 %call.i, label %_ZN4YAML15SingleDocParser14RegisterAnchorERKNSt7__cxx1112basic_stringIcSt11char_traitsIcESaIcEEE.exit, label %if.end.i

if.end.i:                                         ; preds = %if.end
  %m_curAnchor.i = getelementptr inbounds i8, ptr %this, i64 80
  %4 = load i64, ptr %m_curAnchor.i, align 8
  %inc.i = add i64 %4, 1
  store i64 %inc.i, ptr %m_curAnchor.i, align 8
  %m_anchors.i = getelementptr inbounds i8, ptr %this, i64 32
  %call2.i = tail call noundef nonnull align 8 dereferenceable(8) ptr @_ZNSt3mapINSt7__cxx1112basic_stringIcSt11char_traitsIcESaIcEEEmSt4lessIS5_ESaISt4pairIKS5_mEEEixERS9_(ptr noundef nonnull align 8 dereferenceable(48) %m_anchors.i, ptr noundef nonnull align 8 dereferenceable(32) %value)
  store i64 %inc.i, ptr %call2.i, align 8
  br label %_ZN4YAML15SingleDocParser14RegisterAnchorERKNSt7__cxx1112basic_stringIcSt11char_traitsIcESaIcEEE.exit

_ZN4YAML15SingleDocParser14RegisterAnchorERKNSt7__cxx1112basic_stringIcSt11char_traitsIcESaIcEEE.exit: ; preds = %if.end, %if.end.i
  %retval.0.i = phi i64 [ %inc.i, %if.end.i ], [ 0, %if.end ]
  store i64 %retval.0.i, ptr %anchor, align 8
  %5 = load ptr, ptr %m_scanner, align 8
  tail call void @_ZN4YAML7Scanner3popEv(ptr noundef nonnull align 8 dereferenceable(480) %5)
  ret void

eh.resume:                                        ; preds = %ehcleanup, %cleanup.action
  %.pn7 = phi { ptr, i32 } [ %3, %ehcleanup ], [ %.pn8, %cleanup.action ]
  resume { ptr, i32 } %.pn7

unreachable:                                      ; preds = %invoke.cont4
  unreachable
}